Certificate:
    Data:
        Version: 3 (0x2)
        Serial Number: 0 (0x0)
        Signature Algorithm: sha1WithRSAEncryption
        Issuer: C=CH, ST=Geneva, O=United Nations High Commissioner for Refugees (UNHCR), OU=Division of Information Systems and Telecommunications (DIST), CN=Connectivity team/emailAddress=hqvpnsup@unhcr.org
        Validity
            Not Before: Apr 16 15:19:21 2010 GMT
            Not After : Apr 13 15:19:21 2020 GMT
        Subject: C=CH, ST=Geneva, O=United Nations High Commissioner for Refugees (UNHCR), OU=Division of Information Systems and Telecommunications (DIST), CN=Connectivity team/emailAddress=hqvpnsup@unhcr.org
        Subject Public Key Info:
            Public Key Algorithm: rsaEncryption
            RSA Public Key: (1024 bit)
                Modulus (1024 bit):
                    00:f0:eb:b8:f5:59:86:7a:92:38:b6:cd:c2:0c:61:
                    c8:a4:99:57:2b:d8:31:21:3b:e0:74:7a:64:13:e7:
                    4d:9f:2b:f3:35:13:38:1b:8f:08:72:8a:bf:43:dd:
                    b6:aa:a8:4c:dc:c6:da:d7:fe:61:77:db:27:d3:82:
                    2a:14:b7:d1:56:a0:4c:ed:e7:20:d9:75:38:4d:0d:
                    d9:62:fb:ef:e0:89:e1:1e:fe:07:35:34:2b:62:de:
                    89:8e:c6:d2:cf:8a:f9:2c:13:e7:be:6e:f4:bd:67:
                    74:01:64:75:28:b6:16:02:a0:ee:f6:bb:2b:44:77:
                    85:af:42:02:1e:c6:86:74:89
                Exponent: 65537 (0x10001)
        X509v3 extensions:
            X509v3 Subject Key Identifier: 
                06:92:91:F4:AC:3F:75:5C:E9:35:CD:87:AE:6E:9D:5B:D6:22:A3:91
            X509v3 Authority Key Identifier: 
                keyid:06:92:91:F4:AC:3F:75:5C:E9:35:CD:87:AE:6E:9D:5B:D6:22:A3:91
                DirName:/C=CH/ST=Geneva/O=United Nations High Commissioner for Refugees (UNHCR)/OU=Division of Information Systems and Telecommunications (DIST)/CN=Connectivity team/emailAddress=hqvpnsup@unhcr.org
                serial:00

            X509v3 Basic Constraints: 
                CA:TRUE
    Signature Algorithm: sha1WithRSAEncryption
        92:1f:d9:2e:40:dc:42:81:55:e0:87:89:86:fe:75:0f:62:1a:
        02:d6:06:94:65:18:4f:eb:dc:f8:b3:6e:a3:12:c7:0b:e4:f8:
        9f:1c:07:93:21:ba:eb:ff:3b:73:12:f4:18:bd:af:37:1a:4b:
        23:26:d4:2e:ef:43:8a:8b:d6:ba:ea:06:7c:3f:48:e2:4e:63:
        03:cf:9c:3a:b1:ca:11:db:32:e1:e0:ea:7e:e7:fe:89:7e:e6:
        59:b7:26:10:c4:74:b2:22:ec:6f:8f:aa:10:9f:a0:a2:a4:bf:
        7d:6c:e0:77:3c:93:c8:7c:54:d0:09:3b:51:bc:5f:8b:5f:1c:
        b9:b0
-----BEGIN CERTIFICATE-----
MIIEjTCCA/agAwIBAgIBADANBgkqhkiG9w0BAQUFADCB5TELMAkGA1UEBhMCQ0gx
DzANBgNVBAgTBkdlbmV2YTE+MDwGA1UEChM1VW5pdGVkIE5hdGlvbnMgSGlnaCBD
b21taXNzaW9uZXIgZm9yIFJlZnVnZWVzIChVTkhDUikxRjBEBgNVBAsTPURpdmlz
aW9uIG9mIEluZm9ybWF0aW9uIFN5c3RlbXMgYW5kIFRlbGVjb21tdW5pY2F0aW9u
cyAoRElTVCkxGjAYBgNVBAMTEUNvbm5lY3Rpdml0eSB0ZWFtMSEwHwYJKoZIhvcN
AQkBFhJocXZwbnN1cEB1bmhjci5vcmcwHhcNMTAwNDE2MTUxOTIxWhcNMjAwNDEz
MTUxOTIxWjCB5TELMAkGA1UEBhMCQ0gxDzANBgNVBAgTBkdlbmV2YTE+MDwGA1UE
ChM1VW5pdGVkIE5hdGlvbnMgSGlnaCBDb21taXNzaW9uZXIgZm9yIFJlZnVnZWVz
IChVTkhDUikxRjBEBgNVBAsTPURpdmlzaW9uIG9mIEluZm9ybWF0aW9uIFN5c3Rl
bXMgYW5kIFRlbGVjb21tdW5pY2F0aW9ucyAoRElTVCkxGjAYBgNVBAMTEUNvbm5l
Y3Rpdml0eSB0ZWFtMSEwHwYJKoZIhvcNAQkBFhJocXZwbnN1cEB1bmhjci5vcmcw
gZ8wDQYJKoZIhvcNAQEBBQADgY0AMIGJAoGBAPDruPVZhnqSOLbNwgxhyKSZVyvY
MSE74HR6ZBPnTZ8r8zUTOBuPCHKKv0PdtqqoTNzG2tf+YXfbJ9OCKhS30VagTO3n
INl1OE0N2WL77+CJ4R7+BzU0K2LeiY7G0s+K+SwT575u9L1ndAFkdSi2FgKg7va7
K0R3ha9CAh7GhnSJAgMBAAGjggFJMIIBRTAdBgNVHQ4EFgQUBpKR9Kw/dVzpNc2H
rm6dW9Yio5EwggEUBgNVHSMEggELMIIBB4AUBpKR9Kw/dVzpNc2Hrm6dW9Yio5Gh
geukgegwgeUxCzAJBgNVBAYTAkNIMQ8wDQYDVQQIEwZHZW5ldmExPjA8BgNVBAoT
NVVuaXRlZCBOYXRpb25zIEhpZ2ggQ29tbWlzc2lvbmVyIGZvciBSZWZ1Z2VlcyAo
VU5IQ1IpMUYwRAYDVQQLEz1EaXZpc2lvbiBvZiBJbmZvcm1hdGlvbiBTeXN0ZW1z
IGFuZCBUZWxlY29tbXVuaWNhdGlvbnMgKERJU1QpMRowGAYDVQQDExFDb25uZWN0
aXZpdHkgdGVhbTEhMB8GCSqGSIb3DQEJARYSaHF2cG5zdXBAdW5oY3Iub3JnggEA
MAwGA1UdEwQFMAMBAf8wDQYJKoZIhvcNAQEFBQADgYEAkh/ZLkDcQoFV4IeJhv51
D2IaAtYGlGUYT+vc+LNuoxLHC+T4nxwHkyG66/87cxL0GL2vNxpLIybULu9DiovW
uuoGfD9I4k5jA8+cOrHKEdsy4eDqfuf+iX7mWbcmEMR0siLsb4+qEJ+goqS/fWzg
dzyTyHxU0Ak7Ubxfi18cubA=
-----END CERTIFICATE-----
